(lp0
S'ABMA 10-1989'
p1
aS'ABMA 11:1990 (R2008)'
p2
aS'ABMA 11:2014'
p3
aS'ABMA 12.1:1992 (S2010)'
p4
aS'ABMA 12.2:1992 (S2010)'
p5
aS'ABMA 13:1987 (S2010)'
p6
aS'ABMA 14:1995 (S2010)'
p7
aS'ABMA 15:1991(S2010)'
p8
aS'ABMA 18.1:1982 (S2013)'
p9
aS'ABMA 18.2:1982 (S2013)'
p10
a.